target datalayout = "e-m:e-p270:32:32-p271:32:32-p272:64:64-i64:64-i128:128-f80:128-n8:16:32:64-S128"
target triple = "x86_64-pc-linux-gnu"

%struct.slurm_step_id_msg = type { i64, i32, i32, i32 }
%struct.srun_step_missing_msg = type { ptr, %struct.slurm_step_id_msg }

; Function Attrs: nounwind uwtable
define dso_local void @pack_step_id(ptr noundef %0, ptr noundef %1, i16 noundef zeroext %2) #0 {
  %4 = alloca ptr, align 8
  %5 = alloca ptr, align 8
  %6 = alloca i16, align 2
  store ptr %0, ptr %4, align 8
  store ptr %1, ptr %5, align 8
  store i16 %2, ptr %6, align 2
  %7 = load i16, ptr %6, align 2
  %8 = zext i16 %7 to i32
  %9 = icmp sge i32 %8, 10752
  br i1 %9, label %10, label %27

10:                                               ; preds = %3
  %11 = load ptr, ptr %4, align 8
  %12 = getelementptr inbounds nuw %struct.slurm_step_id_msg, ptr %11, i32 0, i32 0
  %13 = load i64, ptr %12, align 8
  %14 = load ptr, ptr %5, align 8
  call void @pack64(i64 noundef %13, ptr noundef %14)
  %15 = load ptr, ptr %4, align 8
  %16 = getelementptr inbounds nuw %struct.slurm_step_id_msg, ptr %15, i32 0, i32 1
  %17 = load i32, ptr %16, align 8
  %18 = load ptr, ptr %5, align 8
  call void @pack32(i32 noundef %17, ptr noundef %18)
  %19 = load ptr, ptr %4, align 8
  %20 = getelementptr inbounds nuw %struct.slurm_step_id_msg, ptr %19, i32 0, i32 3
  %21 = load i32, ptr %20, align 8
  %22 = load ptr, ptr %5, align 8
  call void @pack32(i32 noundef %21, ptr noundef %22)
  %23 = load ptr, ptr %4, align 8
  %24 = getelementptr inbounds nuw %struct.slurm_step_id_msg, ptr %23, i32 0, i32 2
  %25 = load i32, ptr %24, align 4
  %26 = load ptr, ptr %5, align 8
  call void @pack32(i32 noundef %25, ptr noundef %26)
  br label %45

27:                                               ; preds = %3
  %28 = load i16, ptr %6, align 2
  %29 = zext i16 %28 to i32
  %30 = icmp sge i32 %29, 10240
  br i1 %30, label %31, label %44

31:                                               ; preds = %27
  %32 = load ptr, ptr %4, align 8
  %33 = getelementptr inbounds nuw %struct.slurm_step_id_msg, ptr %32, i32 0, i32 1
  %34 = load i32, ptr %33, align 8
  %35 = load ptr, ptr %5, align 8
  call void @pack32(i32 noundef %34, ptr noundef %35)
  %36 = load ptr, ptr %4, align 8
  %37 = getelementptr inbounds nuw %struct.slurm_step_id_msg, ptr %36, i32 0, i32 3
  %38 = load i32, ptr %37, align 8
  %39 = load ptr, ptr %5, align 8
  call void @pack32(i32 noundef %38, ptr noundef %39)
  %40 = load ptr, ptr %4, align 8
  %41 = getelementptr inbounds nuw %struct.slurm_step_id_msg, ptr %40, i32 0, i32 2
  %42 = load i32, ptr %41, align 4
  %43 = load ptr, ptr %5, align 8
  call void @pack32(i32 noundef %42, ptr noundef %43)
  br label %44

44:                                               ; preds = %31, %27
  br label %45

45:                                               ; preds = %44, %10
  ret void
}

; Function Attrs: nounwind uwtable
define internal void @_pack_srun_step_missing_msg(ptr noundef %0, ptr noundef %1, i16 noundef zeroext %2) #0 {
  %4 = alloca ptr, align 8
  %5 = alloca ptr, align 8
  %6 = alloca i16, align 2
  %7 = alloca i32, align 4
  store ptr %0, ptr %4, align 8
  store ptr %1, ptr %5, align 8
  store i16 %2, ptr %6, align 2
  %8 = load i16, ptr %6, align 2
  %9 = zext i16 %8 to i32
  %10 = icmp sge i32 %9, 10240
  br i1 %10, label %11, label %35

11:                                               ; preds = %3
  %12 = load ptr, ptr %4, align 8
  %13 = getelementptr inbounds nuw %struct.srun_step_missing_msg, ptr %12, i32 0, i32 1
  %14 = load ptr, ptr %5, align 8
  %15 = load i16, ptr %6, align 2
  call void @pack_step_id(ptr noundef %13, ptr noundef %14, i16 noundef zeroext %15)
  br label %16

16:                                               ; preds = %11
  call void @llvm.lifetime.start.p0(i64 4, ptr %7) #6
  store i32 0, ptr %7, align 4
  %17 = load ptr, ptr %4, align 8
  %18 = getelementptr inbounds nuw %struct.srun_step_missing_msg, ptr %17, i32 0, i32 0
  %19 = load ptr, ptr %18, align 8
  %20 = icmp ne ptr %19, null
  br i1 %20, label %21, label %28

21:                                               ; preds = %16
  %22 = load ptr, ptr %4, align 8
  %23 = getelementptr inbounds nuw %struct.srun_step_missing_msg, ptr %22, i32 0, i32 0
  %24 = load ptr, ptr %23, align 8
  %25 = call i64 @strlen(ptr noundef %24) #7
  %26 = trunc i64 %25 to i32
  %27 = add i32 %26, 1
  store i32 %27, ptr %7, align 4
  br label %28

28:                                               ; preds = %21, %16
  %29 = load ptr, ptr %4, align 8
  %30 = getelementptr inbounds nuw %struct.srun_step_missing_msg, ptr %29, i32 0, i32 0
  %31 = load ptr, ptr %30, align 8
  %32 = load i32, ptr %7, align 4
  %33 = load ptr, ptr %5, align 8
  call void @packmem(ptr noundef %31, i32 noundef %32, ptr noundef %33)
  call void @llvm.lifetime.end.p0(i64 4, ptr %7) #6
  br label %34

34:                                               ; preds = %28
  br label %35

35:                                               ; preds = %34, %3
  ret void
}