; Function Attrs: nounwind uwtable
define internal fastcc void @_pack_srun_step_missing_msg(ptr noundef readonly captures(none) %0, ptr noundef %1, i16 noundef zeroext %2) unnamed_addr #0 {
  %4 = icmp ugt i16 %2, 10239
  br i1 %4, label %5, label %22

5:                                                ; preds = %3
  %6 = icmp ugt i16 %2, 10751
  br i1 %6, label %7, label %pack_step_id.exit

7:                                                ; preds = %5
  %8 = getelementptr inbounds nuw i8, ptr %0, i64 8
  %9 = load i64, ptr %8, align 8
  tail call void @pack64(i64 noundef %9, ptr noundef %1) #7
  br label %pack_step_id.exit

pack_step_id.exit:                                ; preds = %7, %5
  %10 = getelementptr inbounds nuw i8, ptr %0, i64 16
  %11 = load i32, ptr %10, align 8
  tail call void @pack32(i32 noundef %11, ptr noundef %1) #7
  %12 = getelementptr inbounds nuw i8, ptr %0, i64 24
  %13 = load i32, ptr %12, align 8
  tail call void @pack32(i32 noundef %13, ptr noundef %1) #7
  %14 = getelementptr inbounds nuw i8, ptr %0, i64 20
  %15 = load i32, ptr %14, align 4
  tail call void @pack32(i32 noundef %15, ptr noundef %1) #7
  %16 = load ptr, ptr %0, align 8
  %.not = icmp eq ptr %16, null
  br i1 %.not, label %21, label %17

17:                                               ; preds = %pack_step_id.exit
  %18 = tail call i64 @strlen(ptr noundef nonnull dereferenceable(1) %16) #8
  %19 = trunc i64 %18 to i32
  %20 = add i32 %19, 1
  br label %21

21:                                               ; preds = %17, %pack_step_id.exit
  %.0 = phi i32 [ %20, %17 ], [ 0, %pack_step_id.exit ]
  tail call void @packmem(ptr noundef %16, i32 noundef %.0, ptr noundef %1) #7
  br label %22

22:                                               ; preds = %21, %3
  ret void
}